target datalayout = "e-m:e-p270:32:32-p271:32:32-p272:64:64-i64:64-i128:128-f80:128-n8:16:32:64-S128"
target triple = "x86_64-pc-linux-gnu"

%struct.slurm_conf_t = type { i64, ptr, i16, ptr, ptr, ptr, ptr, ptr, i16, ptr, ptr, ptr, ptr, ptr, ptr, ptr, i16, ptr, ptr, ptr, ptr, i16, ptr, ptr, ptr, i64, ptr, ptr, ptr, ptr, i16, ptr, ptr, i16, i32, ptr, i32, ptr, i32, i32, ptr, ptr, i64, i64, ptr, i16, i16, ptr, i32, i32, ptr, i32, ptr, i32, i16, i16, i16, ptr, i16, i16, ptr, ptr, i32, i16, i16, ptr, i32, i16, ptr, ptr, ptr, ptr, i16, ptr, ptr, ptr, ptr, i32, ptr, ptr, ptr, ptr, i16, i16, ptr, i32, i32, i32, i16, i16, ptr, ptr, i16, ptr, ptr, i32, i32, i32, i32, i32, i64, i32, i32, i16, ptr, ptr, i32, ptr, ptr, ptr, i16, i32, ptr, ptr, i16, ptr, ptr, i32, i16, ptr, ptr, ptr, ptr, i32, i32, i16, i16, i32, ptr, i16, ptr, i32, i32, i32, i32, i32, i32, ptr, i16, ptr, ptr, i32, i16, ptr, i32, i16, i16, ptr, ptr, ptr, i16, ptr, ptr, ptr, ptr, i16, i16, ptr, i16, ptr, i16, ptr, i16, ptr, i16, ptr, ptr, ptr, ptr, i16, ptr, ptr, ptr, i32, ptr, i32, ptr, ptr, i16, ptr, ptr, i32, i16, ptr, ptr, i16, i16, ptr, i16, ptr, ptr, ptr, i32, ptr, i16, i16, ptr, ptr, ptr, ptr, ptr, ptr, ptr, ptr, i16, i32, i16, ptr, ptr, ptr, ptr, i32, ptr, ptr, ptr, i16, ptr, ptr, ptr, i16, ptr, i16, ptr, i16, i16, ptr }
%struct.acct_gather_energy = type { i32, i64, i64, i32, i64, i64, i64 }

@plugin_type = dso_local constant [23 x i8] c"acct_gather_energy/gpu\00", align 16
@slurm_conf = external global %struct.slurm_conf_t, align 8
@.str.18 = private unnamed_addr constant [86 x i8] c"%s: %s: ENERGY: gpu: %d, current_watts: %u, consumed %lu Joules %lu new, ave watts %u\00", align 1
@__func__._add_energy = private unnamed_addr constant [12 x i8] c"_add_energy\00", align 1

; Function Attrs: nounwind uwtable
define internal void @_add_energy(ptr noundef %0, ptr noundef %1, i32 noundef %2) #0 {
  %4 = alloca ptr, align 8
  %5 = alloca ptr, align 8
  %6 = alloca i32, align 4
  store ptr %0, ptr %4, align 8
  store ptr %1, ptr %5, align 8
  store i32 %2, ptr %6, align 4
  %7 = load ptr, ptr %5, align 8
  %8 = getelementptr inbounds nuw %struct.acct_gather_energy, ptr %7, i32 0, i32 3
  %9 = load i32, ptr %8, align 8
  %10 = icmp eq i32 %9, -2
  br i1 %10, label %11, label %12

11:                                               ; preds = %3
  br label %92

12:                                               ; preds = %3
  %13 = load ptr, ptr %5, align 8
  %14 = getelementptr inbounds nuw %struct.acct_gather_energy, ptr %13, i32 0, i32 1
  %15 = load i64, ptr %14, align 8
  %16 = load ptr, ptr %4, align 8
  %17 = getelementptr inbounds nuw %struct.acct_gather_energy, ptr %16, i32 0, i32 1
  %18 = load i64, ptr %17, align 8
  %19 = add i64 %18, %15
  store i64 %19, ptr %17, align 8
  %20 = load ptr, ptr %5, align 8
  %21 = getelementptr inbounds nuw %struct.acct_gather_energy, ptr %20, i32 0, i32 0
  %22 = load i32, ptr %21, align 8
  %23 = load ptr, ptr %4, align 8
  %24 = getelementptr inbounds nuw %struct.acct_gather_energy, ptr %23, i32 0, i32 0
  %25 = load i32, ptr %24, align 8
  %26 = add i32 %25, %22
  store i32 %26, ptr %24, align 8
  %27 = load ptr, ptr %5, align 8
  %28 = getelementptr inbounds nuw %struct.acct_gather_energy, ptr %27, i32 0, i32 2
  %29 = load i64, ptr %28, align 8
  %30 = load ptr, ptr %4, align 8
  %31 = getelementptr inbounds nuw %struct.acct_gather_energy, ptr %30, i32 0, i32 2
  %32 = load i64, ptr %31, align 8
  %33 = add i64 %32, %29
  store i64 %33, ptr %31, align 8
  %34 = load ptr, ptr %5, align 8
  %35 = getelementptr inbounds nuw %struct.acct_gather_energy, ptr %34, i32 0, i32 3
  %36 = load i32, ptr %35, align 8
  %37 = load ptr, ptr %4, align 8
  %38 = getelementptr inbounds nuw %struct.acct_gather_energy, ptr %37, i32 0, i32 3
  %39 = load i32, ptr %38, align 8
  %40 = add i32 %39, %36
  store i32 %40, ptr %38, align 8
  %41 = load ptr, ptr %5, align 8
  %42 = getelementptr inbounds nuw %struct.acct_gather_energy, ptr %41, i32 0, i32 4
  %43 = load i64, ptr %42, align 8
  %44 = load ptr, ptr %4, align 8
  %45 = getelementptr inbounds nuw %struct.acct_gather_energy, ptr %44, i32 0, i32 4
  %46 = load i64, ptr %45, align 8
  %47 = add i64 %46, %43
  store i64 %47, ptr %45, align 8
  %48 = load ptr, ptr %4, align 8
  %49 = getelementptr inbounds nuw %struct.acct_gather_energy, ptr %48, i32 0, i32 5
  %50 = load i64, ptr %49, align 8
  %51 = icmp ne i64 %50, 0
  br i1 %51, label %52, label %60

52:                                               ; preds = %12
  %53 = load ptr, ptr %4, align 8
  %54 = getelementptr inbounds nuw %struct.acct_gather_energy, ptr %53, i32 0, i32 5
  %55 = load i64, ptr %54, align 8
  %56 = load ptr, ptr %5, align 8
  %57 = getelementptr inbounds nuw %struct.acct_gather_energy, ptr %56, i32 0, i32 5
  %58 = load i64, ptr %57, align 8
  %59 = icmp sgt i64 %55, %58
  br i1 %59, label %60, label %66

60:                                               ; preds = %52, %12
  %61 = load ptr, ptr %5, align 8
  %62 = getelementptr inbounds nuw %struct.acct_gather_energy, ptr %61, i32 0, i32 5
  %63 = load i64, ptr %62, align 8
  %64 = load ptr, ptr %4, align 8
  %65 = getelementptr inbounds nuw %struct.acct_gather_energy, ptr %64, i32 0, i32 5
  store i64 %63, ptr %65, align 8
  br label %66

66:                                               ; preds = %60, %52
  br label %67

67:                                               ; preds = %66
  %68 = load i64, ptr getelementptr inbounds nuw (%struct.slurm_conf_t, ptr @slurm_conf, i32 0, i32 42), align 8
  %69 = and i64 %68, 262144
  %70 = icmp ne i64 %69, 0
  br i1 %70, label %71, label %91

71:                                               ; preds = %67
  br label %72

72:                                               ; preds = %71
  %73 = call i32 @slurm_get_log_level()
  %74 = icmp sge i32 %73, 4
  br i1 %74, label %75, label %89

75:                                               ; preds = %72
  %76 = load i32, ptr %6, align 4
  %77 = load ptr, ptr %5, align 8
  %78 = getelementptr inbounds nuw %struct.acct_gather_energy, ptr %77, i32 0, i32 3
  %79 = load i32, ptr %78, align 8
  %80 = load ptr, ptr %5, align 8
  %81 = getelementptr inbounds nuw %struct.acct_gather_energy, ptr %80, i32 0, i32 2
  %82 = load i64, ptr %81, align 8
  %83 = load ptr, ptr %5, align 8
  %84 = getelementptr inbounds nuw %struct.acct_gather_energy, ptr %83, i32 0, i32 1
  %85 = load i64, ptr %84, align 8
  %86 = load ptr, ptr %5, align 8
  %87 = getelementptr inbounds nuw %struct.acct_gather_energy, ptr %86, i32 0, i32 0
  %88 = load i32, ptr %87, align 8
  call void (i32, ptr, ...) @slurm_log_var(i32 noundef 4, ptr noundef @.str.18, ptr noundef @plugin_type, ptr noundef @__func__._add_energy, i32 noundef %76, i32 noundef %79, i64 noundef %82, i64 noundef %85, i32 noundef %88)
  br label %89

89:                                               ; preds = %75, %72
  br label %90

90:                                               ; preds = %89
  br label %91

91:                                               ; preds = %90, %67
  br label %92

92:                                               ; preds = %11, %91
  ret void
}