; Function Attrs: nounwind uwtable
define internal fastcc void @_add_energy(ptr noundef captures(none) %0, ptr noundef readonly captures(none) %1, i32 noundef range(i32 0, 65535) %2) unnamed_addr #1 {
  %4 = getelementptr inbounds nuw i8, ptr %1, i64 24
  %5 = load i32, ptr %4, align 8
  %6 = icmp eq i32 %5, -2
  br i1 %6, label %44, label %7

7:                                                ; preds = %3
  %8 = getelementptr inbounds nuw i8, ptr %1, i64 8
  %9 = load i64, ptr %8, align 8
  %10 = getelementptr inbounds nuw i8, ptr %0, i64 8
  %11 = load i64, ptr %10, align 8
  %12 = add i64 %11, %9
  store i64 %12, ptr %10, align 8
  %13 = load i32, ptr %1, align 8
  %14 = load i32, ptr %0, align 8
  %15 = add i32 %14, %13
  store i32 %15, ptr %0, align 8
  %16 = getelementptr inbounds nuw i8, ptr %1, i64 16
  %17 = load i64, ptr %16, align 8
  %18 = getelementptr inbounds nuw i8, ptr %0, i64 16
  %19 = load i64, ptr %18, align 8
  %20 = add i64 %19, %17
  store i64 %20, ptr %18, align 8
  %21 = load i32, ptr %4, align 8
  %22 = getelementptr inbounds nuw i8, ptr %0, i64 24
  %23 = load i32, ptr %22, align 8
  %24 = add i32 %23, %21
  store i32 %24, ptr %22, align 8
  %25 = getelementptr inbounds nuw i8, ptr %1, i64 32
  %26 = load i64, ptr %25, align 8
  %27 = getelementptr inbounds nuw i8, ptr %0, i64 32
  %28 = load i64, ptr %27, align 8
  %29 = add i64 %28, %26
  store i64 %29, ptr %27, align 8
  %30 = getelementptr inbounds nuw i8, ptr %0, i64 40
  %31 = load i64, ptr %30, align 8
  %.not = icmp eq i64 %31, 0
  %.phi.trans.insert = getelementptr inbounds nuw i8, ptr %1, i64 40
  %.pre = load i64, ptr %.phi.trans.insert, align 8
  %32 = icmp sgt i64 %31, %.pre
  %or.cond = select i1 %.not, i1 true, i1 %32
  br i1 %or.cond, label %._crit_edge, label %33

._crit_edge:                                      ; preds = %7
  store i64 %.pre, ptr %30, align 8
  br label %33

33:                                               ; preds = %7, %._crit_edge
  %34 = load i64, ptr getelementptr inbounds nuw (i8, ptr @slurm_conf, i64 320), align 8
  %35 = and i64 %34, 262144
  %.not20 = icmp eq i64 %35, 0
  br i1 %.not20, label %44, label %36

36:                                               ; preds = %33
  %37 = tail call i32 @slurm_get_log_level() #11
  %38 = icmp sgt i32 %37, 3
  br i1 %38, label %39, label %44

39:                                               ; preds = %36
  %40 = load i32, ptr %4, align 8
  %41 = load i64, ptr %16, align 8
  %42 = load i64, ptr %8, align 8
  %43 = load i32, ptr %1, align 8
  tail call void (i32, ptr, ...) @slurm_log_var(i32 noundef 4, ptr noundef nonnull @.str.18, ptr noundef nonnull @plugin_type, ptr noundef nonnull @__func__._add_energy, i32 noundef %2, i32 noundef %40, i64 noundef %41, i64 noundef %42, i32 noundef %43) #11
  br label %44

44:                                               ; preds = %33, %36, %39, %3
  ret void
}